Certificate:
    Data:
        Version: 3 (0x2)
        Serial Number:
            0f:5c:1a:a7:c9:5d:a2:0b:50:37:6d:d9:39:d5:70:43
        Signature Algorithm: sha256WithRSAEncryption
        Issuer: CN=grassdoor.clientvpn.com
        Validity
            Not Before: Jun 21 10:47:40 2021 GMT
            Not After : Sep 24 10:47:40 2023 GMT
        Subject: CN=grassdoor.clientvpn.com
        Subject Public Key Info:
            Public Key Algorithm: rsaEncryption
                RSA Public-Key: (2048 bit)
                Modulus:
                    00:ba:32:50:ca:12:55:7c:21:84:17:d1:ee:fe:ca:
                    c2:f4:8f:d3:47:99:a8:78:40:34:6e:a2:13:5c:36:
                    07:12:23:5c:17:39:09:a6:5a:ed:f6:86:c5:92:af:
                    c4:ad:e7:8f:1a:2a:e4:11:84:cb:4d:18:5e:ed:e9:
                    9e:e3:b4:ec:06:51:58:d7:31:3d:03:87:37:f2:be:
                    0c:0f:d2:72:9d:36:db:64:c1:bc:e1:53:59:58:26:
                    71:31:a5:b8:8f:70:85:29:cd:4a:09:6d:71:d1:2e:
                    26:bc:13:24:ee:b9:74:2d:b2:1a:4f:41:0f:60:9a:
                    8c:24:6e:d2:fd:17:8e:32:5c:4b:0e:97:8e:2d:74:
                    fb:25:64:9f:15:21:2d:95:85:48:f4:14:2d:10:40:
                    13:45:74:0d:0f:72:49:42:c4:81:c2:c4:23:5f:f9:
                    23:89:ab:17:05:20:cf:13:8f:17:b2:7a:04:5a:c2:
                    12:80:5c:95:17:80:6e:b2:6d:a6:58:2a:c1:58:49:
                    57:c1:81:f7:10:a2:62:a2:74:e5:4e:1d:a9:05:8b:
                    f4:df:1d:4e:86:e1:82:2c:d2:46:c8:2b:76:6d:82:
                    2f:da:a0:f5:70:49:2b:db:5a:97:32:48:8f:a5:96:
                    24:ca:48:bd:13:db:fb:93:5f:c5:16:ec:44:7a:12:
                    06:5b
                Exponent: 65537 (0x10001)
        X509v3 extensions:
            X509v3 Basic Constraints: 
                CA:FALSE
            X509v3 Subject Key Identifier: 
                C2:A2:AA:23:47:20:00:EA:B6:22:DB:71:21:54:15:9E:BE:EE:44:3C
            X509v3 Authority Key Identifier: 
                keyid:09:D9:D3:ED:BA:CA:28:96:00:48:10:80:F8:7E:C4:C8:CC:9A:14:7E
                DirName:/CN=grassdoor.clientvpn.com
                serial:0F:69:A8:8E:8B:9A:B1:6F:04:E1:B8:B4:10:03:E4:6A:3F:0E:4E:CF

            X509v3 Extended Key Usage: 
                TLS Web Server Authentication
            X509v3 Key Usage: 
                Digital Signature, Key Encipherment
            X509v3 Subject Alternative Name: 
                DNS:grassdoor.clientvpn.com
    Signature Algorithm: sha256WithRSAEncryption
         62:67:01:db:82:05:65:37:9c:96:55:01:e7:88:8e:53:7e:ef:
         db:95:95:1f:b3:52:33:1f:38:88:37:04:d5:af:4a:07:53:63:
         6b:da:53:bd:d6:51:1d:c6:c2:75:0f:4d:ff:63:aa:d7:d0:07:
         dc:5f:0a:9e:cc:be:d3:eb:f8:aa:e0:cb:9a:ed:04:f5:98:6f:
         65:fc:50:7a:9b:a3:e6:c1:b4:4a:60:f2:5a:68:de:34:c0:09:
         43:84:c3:3e:31:37:b0:52:3e:b4:1f:31:ef:7a:11:b0:59:aa:
         f2:69:68:44:0b:ef:02:1f:18:fd:d9:9d:68:96:37:e4:f6:57:
         6c:cc:04:1d:30:ce:06:e0:59:96:ae:1d:26:9f:3c:e1:df:a5:
         f4:db:0c:a3:75:e0:d4:d9:36:d7:97:ec:4e:cd:47:bb:8c:8f:
         04:9e:29:92:2f:fb:c8:c3:e1:f1:3e:ab:d8:e8:b6:65:f0:5f:
         7e:13:22:84:80:9b:61:6c:05:fd:35:99:e8:29:59:ea:2b:e0:
         73:92:63:7f:dd:f8:7a:ac:b1:ce:10:c3:c3:d6:55:51:20:da:
         36:e6:fd:c8:d0:ef:da:6e:73:35:6e:cb:32:d9:c0:21:63:5e:
         c7:fd:a7:e9:1b:fb:d0:f0:9e:1f:ce:99:df:3c:77:b0:f6:59:
         26:8e:fc:6b
-----BEGIN CERTIFICATE-----
MIIDoTCCAomgAwIBAgIQD1wap8ldogtQN23ZOdVwQzANBgkqhkiG9w0BAQsFADAi
MSAwHgYDVQQDDBdncmFzc2Rvb3IuY2xpZW50dnBuLmNvbTAeFw0yMTA2MjExMDQ3
NDBaFw0yMzA5MjQxMDQ3NDBaMCIxIDAeBgNVBAMMF2dyYXNzZG9vci5jbGllbnR2
cG4uY29tMIIBIjANBgkqhkiG9w0BAQEFAAOCAQ8AMIIBCgKCAQEAujJQyhJVfCGE
F9Hu/srC9I/TR5moeEA0bqITXDYHEiNcFzkJplrt9obFkq/EreePGirkEYTLTRhe
7eme47TsBlFY1zE9A4c38r4MD9JynTbbZMG84VNZWCZxMaW4j3CFKc1KCW1x0S4m
vBMk7rl0LbIaT0EPYJqMJG7S/ReOMlxLDpeOLXT7JWSfFSEtlYVI9BQtEEATRXQN
D3JJQsSBwsQjX/kjiasXBSDPE48XsnoEWsISgFyVF4Busm2mWCrBWElXwYH3EKJi
onTlTh2pBYv03x1OhuGCLNJGyCt2bYIv2qD1cEkr21qXMkiPpZYkyki9E9v7k1/F
FuxEehIGWwIDAQABo4HSMIHPMAkGA1UdEwQCMAAwHQYDVR0OBBYEFMKiqiNHIADq
tiLbcSFUFZ6+7kQ8MF0GA1UdIwRWMFSAFAnZ0+26yiiWAEgQgPh+xMjMmhR+oSak
JDAiMSAwHgYDVQQDDBdncmFzc2Rvb3IuY2xpZW50dnBuLmNvbYIUD2mojouasW8E
4bi0EAPkaj8OTs8wEwYDVR0lBAwwCgYIKwYBBQUHAwEwCwYDVR0PBAQDAgWgMCIG
A1UdEQQbMBmCF2dyYXNzZG9vci5jbGllbnR2cG4uY29tMA0GCSqGSIb3DQEBCwUA
A4IBAQBiZwHbggVlN5yWVQHniI5Tfu/blZUfs1IzHziINwTVr0oHU2Nr2lO91lEd
xsJ1D03/Y6rX0AfcXwqezL7T6/iq4Mua7QT1mG9l/FB6m6PmwbRKYPJaaN40wAlD
hMM+MTewUj60HzHvehGwWaryaWhEC+8CHxj92Z1oljfk9ldszAQdMM4G4FmWrh0m
nzzh36X02wyjdeDU2TbXl+xOzUe7jI8EnimSL/vIw+HxPqvY6LZl8F9+EyKEgJth
bAX9NZnoKVnqK+BzkmN/3fh6rLHOEMPD1lVRINo25v3I0O/abnM1bssy2cAhY17H
/afpG/vQ8J4fzpnfPHew9lkmjvxr
-----END CERTIFICATE-----
