Certificate:
    Data:
        Version: 3 (0x2)
        Serial Number:
            34:91:57:16:a6:fc:c6:10:1e:9a:26:61:eb:da:2c:46
        Signature Algorithm: sha256WithRSAEncryption
        Issuer: CN=grassdoor.clientvpn.com
        Validity
            Not Before: Jun 21 10:47:52 2021 GMT
            Not After : Sep 24 10:47:52 2023 GMT
        Subject: CN=gowtham.clientvpndemo.com
        Subject Public Key Info:
            Public Key Algorithm: rsaEncryption
                RSA Public-Key: (2048 bit)
                Modulus:
                    00:d4:0a:93:cb:aa:f5:67:bc:97:28:a2:1f:e9:72:
                    60:f3:59:41:e4:18:1b:39:01:47:e5:b2:36:9e:fd:
                    5a:46:57:e2:d1:20:e9:4d:ae:10:57:58:da:de:7b:
                    b0:12:df:9c:b1:76:08:12:40:9e:7b:47:cf:b8:93:
                    3a:d8:da:36:f8:2a:8d:11:49:d3:99:50:aa:20:91:
                    91:df:e0:e2:ef:b7:11:6a:8e:60:89:08:17:ca:e1:
                    24:43:80:45:19:84:40:93:49:94:31:48:9e:d4:87:
                    9a:6c:af:98:43:c6:a8:6c:9a:04:25:db:27:94:84:
                    95:a8:81:e6:8e:0f:8e:87:e9:02:2d:09:96:bc:2d:
                    6b:e3:6d:c2:b2:2d:84:23:1d:84:52:9a:36:8d:53:
                    4f:11:bb:1a:0a:65:4f:db:29:c3:15:38:2b:68:fc:
                    39:53:08:43:78:8b:1b:6b:71:78:0a:4c:4e:d9:93:
                    aa:b2:d6:77:37:c6:dc:e3:be:21:41:37:02:6b:c3:
                    f1:ce:cc:39:2b:68:41:6b:ee:8c:31:05:ca:c7:00:
                    22:68:30:b6:75:06:27:7d:88:14:ee:0b:86:87:ae:
                    d8:37:21:97:de:41:1d:32:07:67:02:50:25:41:0b:
                    69:0b:79:8a:08:b6:0e:0b:25:91:6f:05:4c:5c:15:
                    17:95
                Exponent: 65537 (0x10001)
        X509v3 extensions:
            X509v3 Basic Constraints: 
                CA:FALSE
            X509v3 Subject Key Identifier: 
                1D:86:72:66:25:05:86:37:12:8A:43:EB:49:13:92:57:61:C1:BA:93
            X509v3 Authority Key Identifier: 
                keyid:09:D9:D3:ED:BA:CA:28:96:00:48:10:80:F8:7E:C4:C8:CC:9A:14:7E
                DirName:/CN=grassdoor.clientvpn.com
                serial:0F:69:A8:8E:8B:9A:B1:6F:04:E1:B8:B4:10:03:E4:6A:3F:0E:4E:CF

            X509v3 Extended Key Usage: 
                TLS Web Client Authentication
            X509v3 Key Usage: 
                Digital Signature
    Signature Algorithm: sha256WithRSAEncryption
         32:65:d2:c5:38:d3:a9:5a:7c:97:ef:df:2d:fd:73:ae:33:e0:
         d0:d9:6f:43:01:4a:9d:de:dd:e7:28:30:46:27:3a:37:fc:b2:
         7b:ec:23:cb:3b:5b:e8:04:35:1d:bd:4e:54:dd:ca:11:1a:04:
         db:7a:75:11:04:c4:eb:02:f9:7c:42:ac:b2:0a:32:22:21:11:
         f7:30:f2:62:76:fb:27:ff:5e:eb:8f:3f:a9:b0:b9:09:29:2b:
         0f:8c:1b:02:0d:ae:34:0c:78:6b:e3:a6:4d:d6:3b:fd:43:d1:
         de:9b:0c:b5:dd:24:73:3a:03:83:bf:ab:8c:28:ce:a1:92:b4:
         9c:84:6d:8c:d5:f6:50:ff:2f:d9:6c:95:0f:ae:fa:fb:78:8b:
         b9:ec:a6:cb:ae:1e:42:43:7e:5f:40:e3:00:4e:e2:90:ce:07:
         67:5a:d2:05:ba:37:6b:e2:4c:e5:06:7a:25:6f:fc:52:85:37:
         cf:88:54:7f:91:e2:88:18:a4:d2:09:aa:80:95:fe:80:f5:66:
         b6:13:a0:69:a7:5b:cc:39:b0:d3:04:10:ab:d8:02:8a:bf:1a:
         ae:b1:75:8c:4b:99:74:b9:3b:52:15:a7:68:70:06:b8:02:92:
         44:9a:22:a5:22:39:a6:15:4c:df:29:be:7a:36:05:19:63:45:
         39:26:67:47
-----BEGIN CERTIFICATE-----
MIIDfzCCAmegAwIBAgIQNJFXFqb8xhAemiZh69osRjANBgkqhkiG9w0BAQsFADAi
MSAwHgYDVQQDDBdncmFzc2Rvb3IuY2xpZW50dnBuLmNvbTAeFw0yMTA2MjExMDQ3
NTJaFw0yMzA5MjQxMDQ3NTJaMCQxIjAgBgNVBAMMGWdvd3RoYW0uY2xpZW50dnBu
ZGVtby5jb20wggEiMA0GCSqGSIb3DQEBAQUAA4IBDwAwggEKAoIBAQDUCpPLqvVn
vJcooh/pcmDzWUHkGBs5AUflsjae/VpGV+LRIOlNrhBXWNree7AS35yxdggSQJ57
R8+4kzrY2jb4Ko0RSdOZUKogkZHf4OLvtxFqjmCJCBfK4SRDgEUZhECTSZQxSJ7U
h5psr5hDxqhsmgQl2yeUhJWogeaOD46H6QItCZa8LWvjbcKyLYQjHYRSmjaNU08R
uxoKZU/bKcMVOCto/DlTCEN4ixtrcXgKTE7Zk6qy1nc3xtzjviFBNwJrw/HOzDkr
aEFr7owxBcrHACJoMLZ1Bid9iBTuC4aHrtg3IZfeQR0yB2cCUCVBC2kLeYoItg4L
JZFvBUxcFReVAgMBAAGjga4wgaswCQYDVR0TBAIwADAdBgNVHQ4EFgQUHYZyZiUF
hjcSikPrSROSV2HBupMwXQYDVR0jBFYwVIAUCdnT7brKKJYASBCA+H7EyMyaFH6h
JqQkMCIxIDAeBgNVBAMMF2dyYXNzZG9vci5jbGllbnR2cG4uY29tghQPaaiOi5qx
bwThuLQQA+RqPw5OzzATBgNVHSUEDDAKBggrBgEFBQcDAjALBgNVHQ8EBAMCB4Aw
DQYJKoZIhvcNAQELBQADggEBADJl0sU406lafJfv3y39c64z4NDZb0MBSp3e3eco
MEYnOjf8snvsI8s7W+gENR29TlTdyhEaBNt6dREExOsC+XxCrLIKMiIhEfcw8mJ2
+yf/XuuPP6mwuQkpKw+MGwINrjQMeGvjpk3WO/1D0d6bDLXdJHM6A4O/q4wozqGS
tJyEbYzV9lD/L9lslQ+u+vt4i7nspsuuHkJDfl9A4wBO4pDOB2da0gW6N2viTOUG
eiVv/FKFN8+IVH+R4ogYpNIJqoCV/oD1ZrYToGmnW8w5sNMEEKvYAoq/Gq6xdYxL
mXS5O1IVp2hwBrgCkkSaIqUiOaYVTN8pvno2BRljRTkmZ0c=
-----END CERTIFICATE-----
