Certificate:
    Data:
        Version: 3 (0x2)
        Serial Number:
            8e:a1:69:df:c2:40:21:97:82:93:2a:7b:e7:63:eb:63
        Signature Algorithm: sha256WithRSAEncryption
        Issuer: CN=grassdoor.clientvpn.com
        Validity
            Not Before: Jun 21 10:54:32 2021 GMT
            Not After : Sep 24 10:54:32 2023 GMT
        Subject: CN=gowtham.clientvpn.com
        Subject Public Key Info:
            Public Key Algorithm: rsaEncryption
                RSA Public-Key: (2048 bit)
                Modulus:
                    00:e7:16:4f:05:b7:5c:03:87:d4:f9:9b:1a:07:ec:
                    ba:11:48:bc:99:b2:f2:97:55:61:7c:f5:f6:50:67:
                    27:23:cf:5d:a1:e6:8f:4c:08:77:17:6b:99:ae:69:
                    74:71:61:ae:97:cd:6e:79:14:ae:1d:4b:72:26:4f:
                    24:ba:9e:4d:16:55:3a:a3:b9:ac:19:54:4f:99:d2:
                    f4:ae:8f:96:bb:f3:58:65:54:7d:e1:7b:93:b5:79:
                    5d:3a:31:c8:a7:e4:7e:9e:5a:7a:2b:0c:12:a0:58:
                    79:d3:7a:dc:7b:ce:ca:33:d1:29:92:9b:a2:07:fe:
                    16:5c:aa:26:f4:8f:d9:90:5e:13:9d:af:18:36:1e:
                    4c:4f:a2:32:69:18:0c:73:ed:fc:50:a3:26:2f:7b:
                    47:7e:15:da:b8:65:51:9f:82:b6:ed:c0:51:8d:18:
                    ff:03:dc:6d:2e:a1:95:68:7a:e7:58:b1:17:de:59:
                    e2:ec:ee:8f:73:ec:e8:f5:12:b0:dd:32:7c:4e:1d:
                    d6:8e:be:03:9b:66:e3:c4:34:83:5e:c8:43:39:c5:
                    79:cf:a8:99:5d:18:c7:ae:6e:95:82:4a:ad:d1:7d:
                    13:af:a3:84:58:a1:cc:b2:29:61:90:eb:ba:59:52:
                    b1:09:4f:7a:a0:66:c7:96:82:bb:50:40:f5:f5:2c:
                    a5:8f
                Exponent: 65537 (0x10001)
        X509v3 extensions:
            X509v3 Basic Constraints: 
                CA:FALSE
            X509v3 Subject Key Identifier: 
                FA:77:73:27:F9:53:2F:9B:11:F1:D7:C1:13:03:4D:1E:EA:15:7D:55
            X509v3 Authority Key Identifier: 
                keyid:09:D9:D3:ED:BA:CA:28:96:00:48:10:80:F8:7E:C4:C8:CC:9A:14:7E
                DirName:/CN=grassdoor.clientvpn.com
                serial:0F:69:A8:8E:8B:9A:B1:6F:04:E1:B8:B4:10:03:E4:6A:3F:0E:4E:CF

            X509v3 Extended Key Usage: 
                TLS Web Client Authentication
            X509v3 Key Usage: 
                Digital Signature
    Signature Algorithm: sha256WithRSAEncryption
         16:11:68:f8:2f:3a:f0:2c:0a:23:93:f3:a8:0d:76:f1:60:b2:
         9f:65:78:eb:50:b0:14:c9:bc:3e:90:00:fd:17:46:5f:0c:06:
         46:d8:ad:b9:c5:97:fb:de:43:eb:e8:56:06:79:65:5c:65:21:
         5b:c7:20:5e:0d:96:16:ba:64:9c:2e:c9:97:84:98:14:bd:d4:
         6a:62:72:86:b3:88:a9:1e:b4:2f:eb:c1:dd:4a:cf:41:0a:8d:
         bb:d9:3e:35:1c:96:02:93:54:b9:82:2e:a4:c9:d5:a4:85:aa:
         90:d1:19:02:93:54:7d:9f:cb:2a:ac:39:4c:00:0d:21:c8:a2:
         c2:b0:8b:ab:20:16:02:84:fa:64:46:45:6d:b0:f2:b6:a7:bf:
         14:92:c9:4b:a9:14:1c:c1:93:1a:00:8f:b1:53:70:cd:fe:5d:
         4e:66:c2:65:2f:0c:91:be:96:17:e0:20:06:57:09:f4:8b:05:
         55:72:7c:86:69:8b:dd:53:79:cf:35:b5:3f:39:42:c4:3f:28:
         07:71:20:fd:e9:2b:17:3c:4c:6a:c4:d8:10:7d:e9:c0:fe:5c:
         bf:4b:e0:f8:67:7d:76:9f:a2:24:ff:ef:fa:9a:94:ca:48:78:
         e9:35:93:75:6d:05:76:27:12:ef:8e:33:05:ec:40:69:5f:ce:
         d4:ab:3c:ff
-----BEGIN CERTIFICATE-----
MIIDfDCCAmSgAwIBAgIRAI6had/CQCGXgpMqe+dj62MwDQYJKoZIhvcNAQELBQAw
IjEgMB4GA1UEAwwXZ3Jhc3Nkb29yLmNsaWVudHZwbi5jb20wHhcNMjEwNjIxMTA1
NDMyWhcNMjMwOTI0MTA1NDMyWjAgMR4wHAYDVQQDDBVnb3d0aGFtLmNsaWVudHZw
bi5jb20wggEiMA0GCSqGSIb3DQEBAQUAA4IBDwAwggEKAoIBAQDnFk8Ft1wDh9T5
mxoH7LoRSLyZsvKXVWF89fZQZycjz12h5o9MCHcXa5muaXRxYa6XzW55FK4dS3Im
TyS6nk0WVTqjuawZVE+Z0vSuj5a781hlVH3he5O1eV06Mcin5H6eWnorDBKgWHnT
etx7zsoz0SmSm6IH/hZcqib0j9mQXhOdrxg2HkxPojJpGAxz7fxQoyYve0d+Fdq4
ZVGfgrbtwFGNGP8D3G0uoZVoeudYsRfeWeLs7o9z7Oj1ErDdMnxOHdaOvgObZuPE
NINeyEM5xXnPqJldGMeubpWCSq3RfROvo4RYocyyKWGQ67pZUrEJT3qgZseWgrtQ
QPX1LKWPAgMBAAGjga4wgaswCQYDVR0TBAIwADAdBgNVHQ4EFgQU+ndzJ/lTL5sR
8dfBEwNNHuoVfVUwXQYDVR0jBFYwVIAUCdnT7brKKJYASBCA+H7EyMyaFH6hJqQk
MCIxIDAeBgNVBAMMF2dyYXNzZG9vci5jbGllbnR2cG4uY29tghQPaaiOi5qxbwTh
uLQQA+RqPw5OzzATBgNVHSUEDDAKBggrBgEFBQcDAjALBgNVHQ8EBAMCB4AwDQYJ
KoZIhvcNAQELBQADggEBABYRaPgvOvAsCiOT86gNdvFgsp9leOtQsBTJvD6QAP0X
Rl8MBkbYrbnFl/veQ+voVgZ5ZVxlIVvHIF4Nlha6ZJwuyZeEmBS91GpicoaziKke
tC/rwd1Kz0EKjbvZPjUclgKTVLmCLqTJ1aSFqpDRGQKTVH2fyyqsOUwADSHIosKw
i6sgFgKE+mRGRW2w8ranvxSSyUupFBzBkxoAj7FTcM3+XU5mwmUvDJG+lhfgIAZX
CfSLBVVyfIZpi91Tec81tT85QsQ/KAdxIP3pKxc8TGrE2BB96cD+XL9L4PhnfXaf
oiT/7/qalMpIeOk1k3VtBXYnEu+OMwXsQGlfztSrPP8=
-----END CERTIFICATE-----
